target datalayout = "e-m:e-p270:32:32-p271:32:32-p272:64:64-i64:64-i128:128-f80:128-n8:16:32:64-S128"
target triple = "x86_64-pc-linux-gnu"

%struct.UriMemoryManagerStruct = type { ptr, ptr, ptr, ptr, ptr, ptr }

; Function Attrs: nounwind uwtable
define ptr @uriEmulateReallocarray(ptr noundef %0, ptr noundef %1, i64 noundef %2, i64 noundef %3) #0 {
  %5 = alloca ptr, align 8
  %6 = alloca ptr, align 8
  %7 = alloca ptr, align 8
  %8 = alloca i64, align 8
  %9 = alloca i64, align 8
  %10 = alloca i64, align 8
  %11 = alloca i32, align 4
  store ptr %0, ptr %6, align 8, !tbaa !3
  store ptr %1, ptr %7, align 8, !tbaa !18
  store i64 %2, ptr %8, align 8, !tbaa !14
  store i64 %3, ptr %9, align 8, !tbaa !14
  call void @llvm.lifetime.start.p0(i64 8, ptr %10) #9
  %12 = load i64, ptr %8, align 8, !tbaa !14
  %13 = load i64, ptr %9, align 8, !tbaa !14
  %14 = mul i64 %12, %13
  store i64 %14, ptr %10, align 8, !tbaa !14
  %15 = load ptr, ptr %6, align 8, !tbaa !3
  %16 = icmp eq ptr %15, null
  br i1 %16, label %17, label %19

17:                                               ; preds = %4
  %18 = call ptr @__errno_location() #10
  store i32 22, ptr %18, align 4, !tbaa !16
  store ptr null, ptr %5, align 8
  store i32 1, ptr %11, align 4
  br label %41

19:                                               ; preds = %4
  br label %20

20:                                               ; preds = %19
  %21 = load i64, ptr %8, align 8, !tbaa !14
  %22 = icmp ne i64 %21, 0
  br i1 %22, label %23, label %31

23:                                               ; preds = %20
  %24 = load i64, ptr %10, align 8, !tbaa !14
  %25 = load i64, ptr %8, align 8, !tbaa !14
  %26 = udiv i64 %24, %25
  %27 = load i64, ptr %9, align 8, !tbaa !14
  %28 = icmp ne i64 %26, %27
  br i1 %28, label %29, label %31

29:                                               ; preds = %23
  %30 = call ptr @__errno_location() #10
  store i32 12, ptr %30, align 4, !tbaa !16
  store ptr null, ptr %5, align 8
  store i32 1, ptr %11, align 4
  br label %41

31:                                               ; preds = %23, %20
  br label %32

32:                                               ; preds = %31
  br label %33

33:                                               ; preds = %32
  %34 = load ptr, ptr %6, align 8, !tbaa !3
  %35 = getelementptr inbounds nuw %struct.UriMemoryManagerStruct, ptr %34, i32 0, i32 2
  %36 = load ptr, ptr %35, align 8, !tbaa !11
  %37 = load ptr, ptr %6, align 8, !tbaa !3
  %38 = load ptr, ptr %7, align 8, !tbaa !18
  %39 = load i64, ptr %10, align 8, !tbaa !14
  %40 = call ptr %36(ptr noundef %37, ptr noundef %38, i64 noundef %39)
  store ptr %40, ptr %5, align 8
  store i32 1, ptr %11, align 4
  br label %41

41:                                               ; preds = %33, %29, %17
  call void @llvm.lifetime.end.p0(i64 8, ptr %10) #9
  %42 = load ptr, ptr %5, align 8
  ret ptr %42
}