; Function Attrs: nounwind uwtable
define ptr @uriEmulateReallocarray(ptr noundef %0, ptr noundef %1, i64 noundef %2, i64 noundef %3) #1 {
  %mul = tail call { i64, i1 } @llvm.umul.with.overflow.i64(i64 %2, i64 %3)
  %mul.val = extractvalue { i64, i1 } %mul, 0
  %5 = icmp eq ptr %0, null
  br i1 %5, label %6, label %8

6:                                                ; preds = %4
  %7 = tail call ptr @__errno_location() #14
  store i32 22, ptr %7, align 4, !tbaa !12
  br label %15

8:                                                ; preds = %4
  %mul.ov = extractvalue { i64, i1 } %mul, 1
  br i1 %mul.ov, label %9, label %11

9:                                                ; preds = %8
  %10 = tail call ptr @__errno_location() #14
  store i32 12, ptr %10, align 4, !tbaa !12
  br label %15

11:                                               ; preds = %8
  %12 = getelementptr inbounds nuw i8, ptr %0, i64 16
  %13 = load ptr, ptr %12, align 8, !tbaa !9
  %14 = tail call ptr %13(ptr noundef nonnull %0, ptr noundef %1, i64 noundef %mul.val) #15
  br label %15

15:                                               ; preds = %11, %9, %6
  %.0 = phi ptr [ null, %6 ], [ null, %9 ], [ %14, %11 ]
  ret ptr %.0
}